target datalayout = "e-m:e-p270:32:32-p271:32:32-p272:64:64-i64:64-i128:128-f80:128-n8:16:32:64-S128"
target triple = "x86_64-pc-linux-gnu"

%struct.ImVec2 = type { float, float }
%struct.ImGuiStyle = type { float, float, %struct.ImVec2, float, float, float, %struct.ImVec2, %struct.ImVec2, i32, float, float, float, float, %struct.ImVec2, float, float, %struct.ImVec2, %struct.ImVec2, %struct.ImVec2, %struct.ImVec2, float, float, float, float, float, float, float, float, float, float, float, float, float, float, %struct.ImVec2, i32, %struct.ImVec2, %struct.ImVec2, float, %struct.ImVec2, %struct.ImVec2, %struct.ImVec2, %struct.ImVec2, float, i8, i8, i8, float, float, [56 x %struct.ImVec4], float, float, float, i32, i32 }
%struct.ImVec4 = type { float, float, float, float }
%struct.ImGuiIO = type { i32, i32, %struct.ImVec2, float, float, ptr, ptr, ptr, ptr, float, i8, ptr, %struct.ImVec2, i8, i8, i8, i8, i8, i8, i8, i8, i8, i8, i8, i8, i8, i8, i8, i8, i8, float, float, float, float, float, float, i8, i8, i8, i8, i8, i8, i8, i8, i8, i8, ptr, ptr, ptr, ptr, ptr, i8, i8, i8, i8, i8, i8, i8, float, i32, i32, i32, i32, %struct.ImVec2, ptr, %struct.ImVec2, [5 x i8], float, float, i32, i8, i8, i8, i8, i32, [154 x %struct.ImGuiKeyData], i8, %struct.ImVec2, [5 x %struct.ImVec2], [5 x double], [5 x i8], [5 x i8], [5 x i16], [5 x i16], [5 x i8], [5 x double], [5 x i8], [5 x i8], i8, i8, [5 x float], [5 x float], [5 x float], float, i8, i8, i16, %struct.ImVector, ptr, ptr, ptr }
%struct.ImGuiKeyData = type { i8, float, float, float }
%struct.ImVector = type { i32, i32, ptr }
%struct.ImGuiContext = type { i8, i8, %struct.ImGuiIO, %struct.ImGuiPlatformIO, %struct.ImGuiStyle, ptr, float, float, float, float, %struct.ImDrawListSharedData, double, i32, i32, i32, i32, i8, i8, i8, i8, ptr, [16 x i8], %struct.ImVector.1, %struct.ImVector.1, i32, i32, %struct.ImVector.2, %struct.ImVector.2, %struct.ImVector.2, %struct.ImVector.3, %struct.ImGuiStorage, i32, float, i32, ptr, ptr, ptr, ptr, ptr, ptr, %struct.ImVec2, i32, i32, float, %struct.ImVec2, %struct.ImVec2, i32, i32, i32, i32, i32, float, float, i8, i8, i8, i32, i32, float, i8, i8, i8, i8, i8, i8, i8, i8, %struct.ImVec2, ptr, i32, i32, %struct.ImGuiDeactivatedItemData, %struct.ImGuiDataTypeStorage, i32, float, double, double, double, %struct.ImBitArray, [154 x %struct.ImGuiKeyOwnerData], %struct.ImGuiKeyRoutingTable, i32, i8, i32, i32, i32, i32, %struct.ImGuiNextItemData, %struct.ImGuiLastItemData, %struct.ImGuiNextWindowData, i8, i32, %struct.ImVector.6, %struct.ImVector.7, %struct.ImVector.8, %struct.ImVector.9, %struct.ImVector.10, %struct.ImVector.11, %struct.ImVector.12, %struct.ImVector.12, %struct.ImVector.13, %struct.ImVector.14, i8, i8, i8, i8, i32, ptr, i32, i32, i32, i32, i32, i32, %struct.ImVector.9, i32, float, i32, i32, i32, i64, i8, i8, i8, i8, %struct.ImGuiNavItemData, i8, i8, i8, i32, i32, i32, i32, i32, i32, %struct.ImRect, %struct.ImRect, i32, i32, i32, %struct.ImGuiNavItemData, %struct.ImGuiNavItemData, %struct.ImGuiNavItemData, %struct.ImGuiNavItemData, i32, i32, i32, i32, i8, i8, i32, i32, ptr, ptr, ptr, float, float, i8, i32, %struct.ImVec2, %struct.ImVec2, float, i8, i8, i8, i32, i32, i32, [4 x i8], %struct.ImGuiPayload, %struct.ImRect, %struct.ImRect, i32, i32, float, i32, i32, i32, i32, %struct.ImVector.15, [16 x i8], i32, %struct.ImVector.16, ptr, i32, i32, %struct.ImVector.17, %struct.ImPool, %struct.ImVector.19, %struct.ImVector.20, ptr, %struct.ImPool.21, %struct.ImVector.23, %struct.ImVector.24, %struct.ImGuiBoxSelectState, ptr, i32, %struct.ImVector.25, %struct.ImPool.26, i32, i32, float, float, i32, i32, i32, float, %struct.ImVec2, %struct.ImGuiInputTextState, %struct.ImGuiInputTextDeactivatedState, %struct.ImFont, i32, %struct.ImGuiDataTypeStorage, i32, i32, i32, i32, i32, float, float, i32, %struct.ImVec4, %struct.ImGuiComboPreviewData, %struct.ImRect, i8, i16, float, float, float, i8, i8, float, float, float, i16, i16, ptr, %struct.ImVector.28, %struct.ImVector.30, %struct.ImGuiTypingSelectState, %struct.ImGuiPlatformImeData, %struct.ImGuiPlatformImeData, i8, float, %struct.ImGuiTextBuffer, %struct.ImVector.31, %struct.ImChunkStream, %struct.ImChunkStream.32, %struct.ImVector.33, i32, [10 x ptr], i8, i32, ptr, ptr, %struct.ImGuiTextBuffer, ptr, ptr, float, i8, i32, i32, i32, ptr, ptr, %struct.ImVec2, i8, i32, %struct.ImGuiErrorRecoveryState, ptr, i32, i32, %struct.ImGuiTextBuffer, %struct.ImGuiTextIndex, i32, i32, i8, i8, i8, i32, i8, i8, i8, i32, float, %struct.ImVec4, %struct.ImGuiMetricsConfig, %struct.ImGuiIDStackTool, %struct.ImGuiDebugAllocInfo, [60 x float], i32, i32, float, i32, i32, i32, %struct.ImVector.28, [64 x i8] }
%struct.ImGuiPlatformIO = type { ptr, ptr, ptr, ptr, ptr, ptr, ptr, i16, ptr }
%struct.ImDrawListSharedData = type <{ %struct.ImVec2, ptr, ptr, float, float, float, float, float, i32, %struct.ImVec4, %struct.ImVector.0, [48 x %struct.ImVec2], float, [64 x i8], [4 x i8] }>
%struct.ImVector.0 = type { i32, i32, ptr }
%struct.ImVector.1 = type { i32, i32, ptr }
%struct.ImVector.2 = type { i32, i32, ptr }
%struct.ImVector.3 = type { i32, i32, ptr }
%struct.ImGuiStorage = type { %struct.ImVector.4 }
%struct.ImVector.4 = type { i32, i32, ptr }
%struct.ImGuiDeactivatedItemData = type { i32, i32, i8, i8 }
%struct.ImBitArray = type { [5 x i32] }
%struct.ImGuiKeyOwnerData = type <{ i32, i32, i8, i8, [2 x i8] }>
%struct.ImGuiKeyRoutingTable = type { [154 x i16], %struct.ImVector.5, %struct.ImVector.5 }
%struct.ImVector.5 = type { i32, i32, ptr }
%struct.ImGuiNextItemData = type <{ i32, i32, i32, [4 x i8], i64, float, i32, i32, i8, i8, %struct.ImGuiDataTypeStorage, [2 x i8], i32, [4 x i8] }>
%struct.ImGuiLastItemData = type { i32, i32, i32, %struct.ImRect, %struct.ImRect, %struct.ImRect, %struct.ImRect, i32 }
%struct.ImGuiNextWindowData = type { i32, i32, i32, i32, %struct.ImVec2, %struct.ImVec2, %struct.ImVec2, %struct.ImVec2, %struct.ImVec2, i32, i32, i8, %struct.ImRect, ptr, ptr, float, %struct.ImVec2, i32 }
%struct.ImVector.6 = type { i32, i32, ptr }
%struct.ImVector.7 = type { i32, i32, ptr }
%struct.ImVector.8 = type { i32, i32, ptr }
%struct.ImVector.10 = type { i32, i32, ptr }
%struct.ImVector.11 = type { i32, i32, ptr }
%struct.ImVector.12 = type { i32, i32, ptr }
%struct.ImVector.13 = type { i32, i32, ptr }
%struct.ImVector.14 = type { i32, i32, ptr }
%struct.ImVector.9 = type { i32, i32, ptr }
%struct.ImGuiNavItemData = type { ptr, i32, i32, %struct.ImRect, i32, float, float, float, i64 }
%struct.ImGuiPayload = type <{ ptr, i32, i32, i32, i32, [33 x i8], i8, i8, [5 x i8] }>
%struct.ImVector.15 = type { i32, i32, ptr }
%struct.ImVector.16 = type { i32, i32, ptr }
%struct.ImVector.17 = type { i32, i32, ptr }
%struct.ImPool = type { %struct.ImVector.18, %struct.ImGuiStorage, i32, i32 }
%struct.ImVector.18 = type { i32, i32, ptr }
%struct.ImVector.19 = type { i32, i32, ptr }
%struct.ImVector.20 = type { i32, i32, ptr }
%struct.ImPool.21 = type { %struct.ImVector.22, %struct.ImGuiStorage, i32, i32 }
%struct.ImVector.22 = type { i32, i32, ptr }
%struct.ImVector.23 = type { i32, i32, ptr }
%struct.ImVector.24 = type { i32, i32, ptr }
%struct.ImGuiBoxSelectState = type <{ i32, i8, i8, i8, i8, i8, i16, i8, %struct.ImVec2, %struct.ImVec2, %struct.ImVec2, [4 x i8], ptr, i8, [3 x i8], %struct.ImRect, %struct.ImRect, %struct.ImRect, [4 x i8] }>
%struct.ImVector.25 = type { i32, i32, ptr }
%struct.ImPool.26 = type { %struct.ImVector.27, %struct.ImGuiStorage, i32, i32 }
%struct.ImVector.27 = type { i32, i32, ptr }
%struct.ImGuiInputTextState = type <{ ptr, ptr, i32, i32, i32, [4 x i8], ptr, %struct.ImVector.28, %struct.ImVector.28, %struct.ImVector.28, i32, %struct.ImVec2, float, i8, i8, i8, i8, i32, i32, [4 x i8] }>
%struct.ImGuiInputTextDeactivatedState = type { i32, %struct.ImVector.28 }
%struct.ImFont = type <{ %struct.ImVector.19, float, float, %struct.ImVector, %struct.ImVector.29, ptr, ptr, ptr, i16, i16, i16, i16, float, float, float, float, float, i32, i8, [1 x i8], [6 x i8] }>
%struct.ImVector.29 = type { i32, i32, ptr }
%struct.ImGuiDataTypeStorage = type { [8 x i8] }
%struct.ImGuiComboPreviewData = type { %struct.ImRect, %struct.ImVec2, %struct.ImVec2, %struct.ImVec2, float, i32 }
%struct.ImRect = type { %struct.ImVec2, %struct.ImVec2 }
%struct.ImVector.30 = type { i32, i32, ptr }
%struct.ImGuiTypingSelectState = type <{ %struct.ImGuiTypingSelectRequest, [64 x i8], i32, i32, float, i8, [3 x i8] }>
%struct.ImGuiTypingSelectRequest = type { i32, i32, ptr, i8, i8, i8 }
%struct.ImGuiPlatformImeData = type { i8, %struct.ImVec2, float }
%struct.ImVector.31 = type { i32, i32, ptr }
%struct.ImChunkStream = type { %struct.ImVector.28 }
%struct.ImChunkStream.32 = type { %struct.ImVector.28 }
%struct.ImVector.33 = type { i32, i32, ptr }
%struct.ImGuiErrorRecoveryState = type { i16, i16, i16, i16, i16, i16, i16, i16, i16, i16, i16 }
%struct.ImGuiTextBuffer = type { %struct.ImVector.28 }
%struct.ImGuiTextIndex = type <{ %struct.ImVector.10, i32, [4 x i8] }>
%struct.ImGuiMetricsConfig = type { i8, i8, i8, i8, i8, i8, i8, i8, i8, i32, i32, i32, i32 }
%struct.ImGuiIDStackTool = type { i32, i32, i32, %struct.ImVector.34, i8, float }
%struct.ImVector.34 = type { i32, i32, ptr }
%struct.ImGuiDebugAllocInfo = type { i32, i32, i16, [6 x %struct.ImGuiDebugAllocEntry] }
%struct.ImGuiDebugAllocEntry = type { i32, i16, i16 }
%struct.ImVector.28 = type { i32, i32, ptr }

@GImGui = global ptr null, align 8

; Function Attrs: inlinehint mustprogress nounwind uwtable
define linkonce_odr noundef i32 @_ZN5ImGui25ConvertSingleModFlagToKeyE8ImGuiKey(i32 noundef %0) #7 comdat {
  %2 = alloca i32, align 4
  %3 = alloca i32, align 4
  store i32 %0, ptr %3, align 4, !tbaa !273
  %4 = load i32, ptr %3, align 4, !tbaa !273
  %5 = icmp eq i32 %4, 4096
  br i1 %5, label %6, label %7

6:                                                ; preds = %1
  store i32 662, ptr %2, align 4
  br label %21

7:                                                ; preds = %1
  %8 = load i32, ptr %3, align 4, !tbaa !273
  %9 = icmp eq i32 %8, 8192
  br i1 %9, label %10, label %11

10:                                               ; preds = %7
  store i32 663, ptr %2, align 4
  br label %21

11:                                               ; preds = %7
  %12 = load i32, ptr %3, align 4, !tbaa !273
  %13 = icmp eq i32 %12, 16384
  br i1 %13, label %14, label %15

14:                                               ; preds = %11
  store i32 664, ptr %2, align 4
  br label %21

15:                                               ; preds = %11
  %16 = load i32, ptr %3, align 4, !tbaa !273
  %17 = icmp eq i32 %16, 32768
  br i1 %17, label %18, label %19

18:                                               ; preds = %15
  store i32 665, ptr %2, align 4
  br label %21

19:                                               ; preds = %15
  %20 = load i32, ptr %3, align 4, !tbaa !273
  store i32 %20, ptr %2, align 4
  br label %21

21:                                               ; preds = %19, %18, %14, %10, %6
  %22 = load i32, ptr %2, align 4
  ret i32 %22
}

; Function Attrs: inlinehint mustprogress nounwind uwtable
define linkonce_odr noundef ptr @_ZN5ImGui15GetKeyOwnerDataEP12ImGuiContext8ImGuiKey(ptr noundef %0, i32 noundef %1) #7 comdat {
  %3 = alloca ptr, align 8
  %4 = alloca i32, align 4
  store ptr %0, ptr %3, align 8, !tbaa !139
  store i32 %1, ptr %4, align 4, !tbaa !273
  %5 = load i32, ptr %4, align 4, !tbaa !273
  %6 = and i32 %5, 61440
  %7 = icmp ne i32 %6, 0
  br i1 %7, label %8, label %11

8:                                                ; preds = %2
  %9 = load i32, ptr %4, align 4, !tbaa !273
  %10 = call noundef i32 @_ZN5ImGui25ConvertSingleModFlagToKeyE8ImGuiKey(i32 noundef %9)
  store i32 %10, ptr %4, align 4, !tbaa !273
  br label %11

11:                                               ; preds = %8, %2
  %12 = load ptr, ptr %3, align 8, !tbaa !139
  %13 = getelementptr inbounds nuw %struct.ImGuiContext, ptr %12, i32 0, i32 79
  %14 = load i32, ptr %4, align 4, !tbaa !273
  %15 = sub nsw i32 %14, 512
  %16 = sext i32 %15 to i64
  %17 = getelementptr inbounds [154 x %struct.ImGuiKeyOwnerData], ptr %13, i64 0, i64 %16
  ret ptr %17
}

; Function Attrs: mustprogress uwtable
define void @_ZN5ImGui11SetKeyOwnerE8ImGuiKeyji(i32 noundef %0, i32 noundef %1, i32 noundef %2) #0 {
  %4 = alloca i32, align 4
  %5 = alloca i32, align 4
  %6 = alloca i32, align 4
  %7 = alloca ptr, align 8
  %8 = alloca ptr, align 8
  store i32 %0, ptr %4, align 4, !tbaa !273
  store i32 %1, ptr %5, align 4, !tbaa !125
  store i32 %2, ptr %6, align 4, !tbaa !125
  call void @llvm.lifetime.start.p0(i64 8, ptr %7) #16
  %9 = load ptr, ptr @GImGui, align 8, !tbaa !139
  store ptr %9, ptr %7, align 8, !tbaa !139
  call void @llvm.lifetime.start.p0(i64 8, ptr %8) #16
  %10 = load ptr, ptr %7, align 8, !tbaa !139
  %11 = load i32, ptr %4, align 4, !tbaa !273
  %12 = call noundef ptr @_ZN5ImGui15GetKeyOwnerDataEP12ImGuiContext8ImGuiKey(ptr noundef %10, i32 noundef %11)
  store ptr %12, ptr %8, align 8, !tbaa !804
  %13 = load i32, ptr %5, align 4, !tbaa !125
  %14 = load ptr, ptr %8, align 8, !tbaa !804
  %15 = getelementptr inbounds nuw %struct.ImGuiKeyOwnerData, ptr %14, i32 0, i32 1
  store i32 %13, ptr %15, align 4, !tbaa !806
  %16 = load ptr, ptr %8, align 8, !tbaa !804
  %17 = getelementptr inbounds nuw %struct.ImGuiKeyOwnerData, ptr %16, i32 0, i32 0
  store i32 %13, ptr %17, align 4, !tbaa !808
  %18 = load i32, ptr %6, align 4, !tbaa !125
  %19 = and i32 %18, 2097152
  %20 = icmp ne i32 %19, 0
  %21 = load ptr, ptr %8, align 8, !tbaa !804
  %22 = getelementptr inbounds nuw %struct.ImGuiKeyOwnerData, ptr %21, i32 0, i32 3
  %23 = zext i1 %20 to i8
  store i8 %23, ptr %22, align 1, !tbaa !809
  %24 = load i32, ptr %6, align 4, !tbaa !125
  %25 = and i32 %24, 1048576
  %26 = icmp ne i32 %25, 0
  br i1 %26, label %32, label %27

27:                                               ; preds = %3
  %28 = load ptr, ptr %8, align 8, !tbaa !804
  %29 = getelementptr inbounds nuw %struct.ImGuiKeyOwnerData, ptr %28, i32 0, i32 3
  %30 = load i8, ptr %29, align 1, !tbaa !809, !range !140, !noundef !141
  %31 = trunc i8 %30 to i1
  br label %32

32:                                               ; preds = %27, %3
  %33 = phi i1 [ true, %3 ], [ %31, %27 ]
  %34 = load ptr, ptr %8, align 8, !tbaa !804
  %35 = getelementptr inbounds nuw %struct.ImGuiKeyOwnerData, ptr %34, i32 0, i32 2
  %36 = zext i1 %33 to i8
  store i8 %36, ptr %35, align 4, !tbaa !810
  call void @llvm.lifetime.end.p0(i64 8, ptr %8) #16
  call void @llvm.lifetime.end.p0(i64 8, ptr %7) #16
  ret void
}

; Function Attrs: mustprogress uwtable
define void @_ZN5ImGui15SetItemKeyOwnerE8ImGuiKeyi(i32 noundef %0, i32 noundef %1) #0 {
  %3 = alloca i32, align 4
  %4 = alloca i32, align 4
  %5 = alloca ptr, align 8
  %6 = alloca i32, align 4
  %7 = alloca i32, align 4
  store i32 %0, ptr %3, align 4, !tbaa !273
  store i32 %1, ptr %4, align 4, !tbaa !125
  call void @llvm.lifetime.start.p0(i64 8, ptr %5) #16
  %8 = load ptr, ptr @GImGui, align 8, !tbaa !139
  store ptr %8, ptr %5, align 8, !tbaa !139
  call void @llvm.lifetime.start.p0(i64 4, ptr %6) #16
  %9 = load ptr, ptr %5, align 8, !tbaa !139
  %10 = getelementptr inbounds nuw %struct.ImGuiContext, ptr %9, i32 0, i32 88
  %11 = getelementptr inbounds nuw %struct.ImGuiLastItemData, ptr %10, i32 0, i32 0
  %12 = load i32, ptr %11, align 8, !tbaa !564
  store i32 %12, ptr %6, align 4, !tbaa !125
  %13 = load i32, ptr %6, align 4, !tbaa !125
  %14 = icmp eq i32 %13, 0
  br i1 %14, label %27, label %15

15:                                               ; preds = %2
  %16 = load ptr, ptr %5, align 8, !tbaa !139
  %17 = getelementptr inbounds nuw %struct.ImGuiContext, ptr %16, i32 0, i32 48
  %18 = load i32, ptr %17, align 4, !tbaa !645
  %19 = load i32, ptr %6, align 4, !tbaa !125
  %20 = icmp ne i32 %18, %19
  br i1 %20, label %21, label %28

21:                                               ; preds = %15
  %22 = load ptr, ptr %5, align 8, !tbaa !139
  %23 = getelementptr inbounds nuw %struct.ImGuiContext, ptr %22, i32 0, i32 56
  %24 = load i32, ptr %23, align 4, !tbaa !652
  %25 = load i32, ptr %6, align 4, !tbaa !125
  %26 = icmp ne i32 %24, %25
  br i1 %26, label %27, label %28

27:                                               ; preds = %21, %2
  store i32 1, ptr %7, align 4
  br label %61

28:                                               ; preds = %21, %15
  %29 = load i32, ptr %4, align 4, !tbaa !125
  %30 = and i32 %29, 12582912
  %31 = icmp eq i32 %30, 0
  br i1 %31, label %32, label %35

32:                                               ; preds = %28
  %33 = load i32, ptr %4, align 4, !tbaa !125
  %34 = or i32 %33, 12582912
  store i32 %34, ptr %4, align 4, !tbaa !125
  br label %35

35:                                               ; preds = %32, %28
  %36 = load ptr, ptr %5, align 8, !tbaa !139
  %37 = getelementptr inbounds nuw %struct.ImGuiContext, ptr %36, i32 0, i32 48
  %38 = load i32, ptr %37, align 4, !tbaa !645
  %39 = load i32, ptr %6, align 4, !tbaa !125
  %40 = icmp eq i32 %38, %39
  br i1 %40, label %41, label %45

41:                                               ; preds = %35
  %42 = load i32, ptr %4, align 4, !tbaa !125
  %43 = and i32 %42, 4194304
  %44 = icmp ne i32 %43, 0
  br i1 %44, label %55, label %45

45:                                               ; preds = %41, %35
  %46 = load ptr, ptr %5, align 8, !tbaa !139
  %47 = getelementptr inbounds nuw %struct.ImGuiContext, ptr %46, i32 0, i32 56
  %48 = load i32, ptr %47, align 4, !tbaa !652
  %49 = load i32, ptr %6, align 4, !tbaa !125
  %50 = icmp eq i32 %48, %49
  br i1 %50, label %51, label %60

51:                                               ; preds = %45
  %52 = load i32, ptr %4, align 4, !tbaa !125
  %53 = and i32 %52, 8388608
  %54 = icmp ne i32 %53, 0
  br i1 %54, label %55, label %60

55:                                               ; preds = %51, %41
  %56 = load i32, ptr %3, align 4, !tbaa !273
  %57 = load i32, ptr %6, align 4, !tbaa !125
  %58 = load i32, ptr %4, align 4, !tbaa !125
  %59 = and i32 %58, -12582913
  call void @_ZN5ImGui11SetKeyOwnerE8ImGuiKeyji(i32 noundef %56, i32 noundef %57, i32 noundef %59)
  br label %60

60:                                               ; preds = %55, %51, %45
  store i32 0, ptr %7, align 4
  br label %61

61:                                               ; preds = %60, %27
  call void @llvm.lifetime.end.p0(i64 4, ptr %6) #16
  call void @llvm.lifetime.end.p0(i64 8, ptr %5) #16
  %62 = load i32, ptr %7, align 4
  switch i32 %62, label %64 [
    i32 0, label %63
    i32 1, label %63
  ]

63:                                               ; preds = %61, %61
  ret void

64:                                               ; preds = %61
  unreachable
}

; Function Attrs: mustprogress uwtable
define void @_ZN5ImGui15SetItemKeyOwnerE8ImGuiKey(i32 noundef %0) #0 {
  %2 = alloca i32, align 4
  store i32 %0, ptr %2, align 4, !tbaa !273
  %3 = load i32, ptr %2, align 4, !tbaa !273
  call void @_ZN5ImGui15SetItemKeyOwnerE8ImGuiKeyi(i32 noundef %3, i32 noundef 0)
  ret void
}