; Function Attrs: mustprogress nofree norecurse nosync nounwind willreturn memory(readwrite, inaccessiblemem: none) uwtable
define void @_ZN5ImGui15SetItemKeyOwnerE8ImGuiKey(i32 noundef %0) local_unnamed_addr #34 {
  %2 = load ptr, ptr @GImGui, align 8, !tbaa !216
  %3 = getelementptr inbounds nuw i8, ptr %2, i64 7528
  %4 = load i32, ptr %3, align 8, !tbaa !474
  %5 = icmp eq i32 %4, 0
  br i1 %5, label %_ZN5ImGui15SetItemKeyOwnerE8ImGuiKeyi.exit, label %6

6:                                                ; preds = %1
  %7 = getelementptr inbounds nuw i8, ptr %2, i64 5108
  %8 = load i32, ptr %7, align 4, !tbaa !770
  %.not.i = icmp eq i32 %8, %4
  br i1 %.not.i, label %.thread, label %9

9:                                                ; preds = %6
  %10 = getelementptr inbounds nuw i8, ptr %2, i64 5132
  %11 = load i32, ptr %10, align 4, !tbaa !751
  %.not17.i = icmp eq i32 %11, %4
  br i1 %.not17.i, label %12, label %_ZN5ImGui15SetItemKeyOwnerE8ImGuiKeyi.exit

12:                                               ; preds = %9
  %13 = getelementptr inbounds nuw i8, ptr %2, i64 5132
  %14 = load i32, ptr %13, align 4, !tbaa !751
  %.not1 = icmp eq i32 %14, %4
  br i1 %.not1, label %.thread, label %_ZN5ImGui15SetItemKeyOwnerE8ImGuiKeyi.exit

.thread:                                          ; preds = %6, %12
  %15 = and i32 %0, 61440
  %.not.i.i.i = icmp eq i32 %15, 0
  br i1 %.not.i.i.i, label %_ZN5ImGui11SetKeyOwnerE8ImGuiKeyji.exit.i, label %16

16:                                               ; preds = %.thread
  %17 = add i32 %0, -4096
  %18 = tail call i32 @llvm.fshl.i32(i32 %17, i32 %17, i32 20)
  %19 = icmp ult i32 %18, 8
  br i1 %19, label %switch.hole_check, label %_ZN5ImGui11SetKeyOwnerE8ImGuiKeyji.exit.i

switch.hole_check:                                ; preds = %16
  %switch.maskindex = trunc nuw i32 %18 to i8
  %switch.shifted = lshr i8 -117, %switch.maskindex
  %switch.lobit = trunc i8 %switch.shifted to i1
  br i1 %switch.lobit, label %switch.lookup, label %_ZN5ImGui11SetKeyOwnerE8ImGuiKeyji.exit.i

switch.lookup:                                    ; preds = %switch.hole_check
  %20 = zext nneg i32 %18 to i64
  %switch.gep = getelementptr inbounds nuw [8 x i32], ptr @switch.table._ZN5ImGui16DebugBreakButtonEPKcS1_, i64 0, i64 %20
  %switch.load = load i32, ptr %switch.gep, align 4
  br label %_ZN5ImGui11SetKeyOwnerE8ImGuiKeyji.exit.i

_ZN5ImGui11SetKeyOwnerE8ImGuiKeyji.exit.i:        ; preds = %16, %switch.hole_check, %switch.lookup, %.thread
  %.0.i.i.i = phi i32 [ %0, %.thread ], [ %switch.load, %switch.lookup ], [ %0, %switch.hole_check ], [ %0, %16 ]
  %21 = getelementptr inbounds nuw i8, ptr %2, i64 5252
  %22 = add nsw i32 %.0.i.i.i, -512
  %23 = sext i32 %22 to i64
  %24 = getelementptr inbounds [154 x %struct.ImGuiKeyOwnerData], ptr %21, i64 0, i64 %23
  %25 = getelementptr inbounds nuw i8, ptr %24, i64 4
  store i32 %4, ptr %25, align 4, !tbaa !573
  store i32 %4, ptr %24, align 4, !tbaa !575
  %26 = getelementptr inbounds nuw i8, ptr %24, i64 9
  store i8 0, ptr %26, align 1, !tbaa !576
  %27 = getelementptr inbounds nuw i8, ptr %24, i64 8
  store i8 0, ptr %27, align 4, !tbaa !577
  br label %_ZN5ImGui15SetItemKeyOwnerE8ImGuiKeyi.exit

_ZN5ImGui15SetItemKeyOwnerE8ImGuiKeyi.exit:       ; preds = %1, %9, %12, %_ZN5ImGui11SetKeyOwnerE8ImGuiKeyji.exit.i
  ret void
}